; Function Attrs: mustprogress uwtable
define void @_ZN5arrow16CPUMemoryManager15GetBufferWriterESt10shared_ptrINS_6BufferEE(ptr noalias nocapture writeonly sret(%"class.arrow::Result.31") align 8 %agg.result, ptr nocapture nonnull readnone align 8 %this, ptr noundef nonnull %buf) unnamed_addr #4 align 2 personality ptr @__gxx_personality_v0 {
_ZNSt10shared_ptrIN5arrow2io21FixedSizeBufferWriterEED2Ev.exit:
  %__a.i = alloca %"class.std::allocator.59", align 1
  %ref.tmp = alloca %"class.std::shared_ptr.35", align 16
  call void @llvm.lifetime.start.p0(i64 1, ptr nonnull %__a.i)
  call void @_ZNSt12__shared_ptrIN5arrow2io21FixedSizeBufferWriterELN9__gnu_cxx12_Lock_policyE2EEC2ISaIvEJSt10shared_ptrINS0_6BufferEEEEESt20_Sp_alloc_shared_tagIT_EDpOT0_(ptr noundef nonnull align 8 dereferenceable(16) %ref.tmp, ptr nonnull %__a.i, ptr noundef nonnull align 8 dereferenceable(16) %buf)
  call void @llvm.lifetime.end.p0(i64 1, ptr nonnull %__a.i)
  store ptr null, ptr %agg.result, align 8
  %storage_.i.i = getelementptr inbounds i8, ptr %agg.result, i64 8
  %0 = load <2 x ptr>, ptr %ref.tmp, align 16
  store <2 x ptr> %0, ptr %storage_.i.i, align 8
  ret void
}